; ModuleID = 'source-C-CXX/44/767.c'
source_filename = "source-C-CXX/44/767.c"
target datalayout = "e-m:e-p270:32:32-p271:32:32-p272:64:64-i64:64-f80:128-n8:16:32:64-S128"
target triple = "x86_64-pc-linux-gnu"

@.str = private unnamed_addr constant [3 x i8] c"%s\00", align 1
@.str.1 = private unnamed_addr constant [3 x i8] c"%d\00", align 1

; Function Attrs: nofree nounwind sspstrong uwtable
define dso_local void @main() local_unnamed_addr #0 {
  %1 = alloca [50 x i8], align 16
  %2 = alloca [50 x i8], align 16
  %3 = getelementptr inbounds [50 x i8], [50 x i8]* %1, i64 0, i64 0
  call void @llvm.lifetime.start.p0i8(i64 50, i8* nonnull %3) #4
  %4 = getelementptr inbounds [50 x i8], [50 x i8]* %2, i64 0, i64 0
  call void @llvm.lifetime.start.p0i8(i64 50, i8* nonnull %4) #4
  %5 = call i32 (i8*, ...) @__isoc99_scanf(i8* getelementptr inbounds ([3 x i8], [3 x i8]* @.str, i64 0, i64 0), i8* nonnull %3)
  %6 = call i32 (i8*, ...) @__isoc99_scanf(i8* getelementptr inbounds ([3 x i8], [3 x i8]* @.str, i64 0, i64 0), i8* nonnull %4)
  %7 = call i64 @strlen(i8* noundef nonnull %3) #5
  %8 = trunc i64 %7 to i32
  %9 = add i32 %8, -1
  %10 = icmp slt i32 %9, 0
  br i1 %10, label %31, label %11

11:                                               ; preds = %0
  %12 = and i64 %7, 4294967295
  br label %13

13:                                               ; preds = %11, %28
  %14 = phi i64 [ 0, %11 ], [ %30, %28 ]
  %15 = phi i32 [ 0, %11 ], [ %29, %28 ]
  br label %16

16:                                               ; preds = %13, %24
  %17 = phi i64 [ 0, %13 ], [ %25, %24 ]
  %18 = phi i64 [ %14, %13 ], [ %26, %24 ]
  %19 = getelementptr inbounds [50 x i8], [50 x i8]* %2, i64 0, i64 %18
  %20 = load i8, i8* %19, align 1, !tbaa !5
  %21 = getelementptr inbounds [50 x i8], [50 x i8]* %1, i64 0, i64 %17
  %22 = load i8, i8* %21, align 1, !tbaa !5
  %23 = icmp eq i8 %20, %22
  br i1 %23, label %24, label %28

24:                                               ; preds = %16
  %25 = add nuw nsw i64 %17, 1
  %26 = add nuw i64 %18, 1
  %27 = icmp eq i64 %25, %12
  br i1 %27, label %31, label %16, !llvm.loop !8

28:                                               ; preds = %16
  %29 = add nuw nsw i32 %15, 1
  %30 = add nuw i64 %14, 1
  br label %13

31:                                               ; preds = %24, %0
  %32 = phi i32 [ 0, %0 ], [ %15, %24 ]
  %33 = call i32 (i8*, ...) @printf(i8* nonnull dereferenceable(1) getelementptr inbounds ([3 x i8], [3 x i8]* @.str.1, i64 0, i64 0), i32 %32)
  call void @llvm.lifetime.end.p0i8(i64 50, i8* nonnull %4) #4
  call void @llvm.lifetime.end.p0i8(i64 50, i8* nonnull %3) #4
  ret void
}

; Function Attrs: argmemonly mustprogress nofree nosync nounwind willreturn
declare void @llvm.lifetime.start.p0i8(i64 immarg, i8* nocapture) #1

; Function Attrs: nofree nounwind
declare noundef i32 @__isoc99_scanf(i8* nocapture noundef readonly, ...) local_unnamed_addr #2

; Function Attrs: argmemonly mustprogress nofree nounwind readonly willreturn
declare i64 @strlen(i8* nocapture) local_unnamed_addr #3

; Function Attrs: nofree nounwind
declare noundef i32 @printf(i8* nocapture noundef readonly, ...) local_unnamed_addr #2

; Function Attrs: argmemonly mustprogress nofree nosync nounwind willreturn
declare void @llvm.lifetime.end.p0i8(i64 immarg, i8* nocapture) #1


!llvm.module.flags = !{!0, !1, !2, !3}
!llvm.ident = !{!4}

!0 = !{i32 1, !"wchar_size", i32 4}
!1 = !{i32 7, !"PIC Level", i32 2}
!2 = !{i32 7, !"PIE Level", i32 2}
!3 = !{i32 7, !"uwtable", i32 1}
!4 = !{!"clang version 13.0.0"}
!5 = !{!6, !6, i64 0}
!6 = !{!"omnipotent char", !7, i64 0}
!7 = !{!"Simple C/C++ TBAA"}
!8 = distinct !{!8, !9}
!9 = !{!"llvm.loop.mustprogress"}
